target datalayout = "e-m:e-p270:32:32-p271:32:32-p272:64:64-i64:64-i128:128-f80:128-n8:16:32:64-S128"
target triple = "x86_64-pc-linux-gnu"

%"class.sat::literal" = type { i32 }
%"class.sat::asymm_branch" = type { ptr, %class.params_ref, i64, %class.random_gen, i32, i32, i8, i32, i32, i8, i8, i64, i32, i32, i32, %class.svector, %class.svector, %class.svector.0, %class.svector.0, %class.svector, %class.svector }
%class.params_ref = type { ptr }
%class.random_gen = type { i32 }
%class.svector.0 = type { %class.vector.1 }
%class.vector.1 = type { ptr }
%class.svector = type { %class.vector }
%class.vector = type { ptr }
%"class.sat::big" = type { ptr, i32, %class.vector.32, %class.svector.18, %class.svector.33, %class.svector.33, %class.svector, %class.svector, i8, i8, %class.vector.32 }
%class.svector.33 = type { %class.vector.34 }
%class.vector.34 = type { ptr }
%class.vector.32 = type { ptr }
%class.svector.18 = type { %class.vector.19 }
%class.vector.19 = type { ptr }

; Function Attrs: mustprogress nounwind uwtable
define linkonce_odr hidden noundef nonnull align 4 dereferenceable(4) ptr @_ZNK6vectorIN3sat7literalELb0EjEixEj(ptr noundef nonnull align 8 dereferenceable(8) %0, i32 noundef %1) #5 comdat align 2 {
  %3 = alloca ptr, align 8
  %4 = alloca i32, align 4
  store ptr %0, ptr %3, align 8, !tbaa !45
  store i32 %1, ptr %4, align 4, !tbaa !30
  %5 = load ptr, ptr %3, align 8
  %6 = getelementptr inbounds nuw %class.vector, ptr %5, i32 0, i32 0
  %7 = load ptr, ptr %6, align 8, !tbaa !255
  %8 = load i32, ptr %4, align 4, !tbaa !30
  %9 = zext i32 %8 to i64
  %10 = getelementptr inbounds nuw %"class.sat::literal", ptr %7, i64 %9
  ret ptr %10
}

; Function Attrs: mustprogress nounwind uwtable
define linkonce_odr hidden noundef nonnull align 4 dereferenceable(4) ptr @_ZNK6vectorIiLb0EjEixEj(ptr noundef nonnull align 8 dereferenceable(8) %0, i32 noundef %1) #5 comdat align 2 {
  %3 = alloca ptr, align 8
  %4 = alloca i32, align 4
  store ptr %0, ptr %3, align 8, !tbaa !331
  store i32 %1, ptr %4, align 4, !tbaa !30
  %5 = load ptr, ptr %3, align 8
  %6 = getelementptr inbounds nuw %class.vector.34, ptr %5, i32 0, i32 0
  %7 = load ptr, ptr %6, align 8, !tbaa !335
  %8 = load i32, ptr %4, align 4, !tbaa !30
  %9 = zext i32 %8 to i64
  %10 = getelementptr inbounds nuw i32, ptr %7, i64 %9
  ret ptr %10
}

; Function Attrs: mustprogress nounwind uwtable
define linkonce_odr hidden noundef i32 @_ZNK3sat7literal5indexEv(ptr noundef nonnull align 4 dereferenceable(4) %0) #5 comdat align 2 {
  %2 = alloca ptr, align 8
  store ptr %0, ptr %2, align 8, !tbaa !252
  %3 = load ptr, ptr %2, align 8
  %4 = getelementptr inbounds nuw %"class.sat::literal", ptr %3, i32 0, i32 0
  %5 = load i32, ptr %4, align 4, !tbaa !256
  ret i32 %5
}

; Function Attrs: mustprogress uwtable
define linkonce_odr hidden i32 @_ZNK3sat3big10get_parentENS_7literalE(ptr noundef nonnull align 8 dereferenceable(80) %0, i32 %1) #4 comdat align 2 {
  %3 = alloca %"class.sat::literal", align 4
  %4 = alloca %"class.sat::literal", align 4
  %5 = alloca ptr, align 8
  %6 = getelementptr inbounds nuw %"class.sat::literal", ptr %4, i32 0, i32 0
  store i32 %1, ptr %6, align 4
  store ptr %0, ptr %5, align 8, !tbaa !49
  %7 = load ptr, ptr %5, align 8
  %8 = getelementptr inbounds nuw %"class.sat::big", ptr %7, i32 0, i32 7
  %9 = call noundef i32 @_ZNK3sat7literal5indexEv(ptr noundef nonnull align 4 dereferenceable(4) %4)
  %10 = call noundef nonnull align 4 dereferenceable(4) ptr @_ZNK6vectorIN3sat7literalELb0EjEixEj(ptr noundef nonnull align 8 dereferenceable(8) %8, i32 noundef %9)
  call void @llvm.memcpy.p0.p0.i64(ptr align 4 %3, ptr align 4 %10, i64 4, i1 false), !tbaa.struct !214
  %11 = getelementptr inbounds nuw %"class.sat::literal", ptr %3, i32 0, i32 0
  %12 = load i32, ptr %11, align 4
  ret i32 %12
}

; Function Attrs: inlinehint mustprogress nounwind uwtable
define linkonce_odr hidden noundef zeroext i1 @_ZN3sateqERKNS_7literalES2_(ptr noundef nonnull align 4 dereferenceable(4) %0, ptr noundef nonnull align 4 dereferenceable(4) %1) #10 comdat {
  %3 = alloca ptr, align 8
  %4 = alloca ptr, align 8
  store ptr %0, ptr %3, align 8, !tbaa !252
  store ptr %1, ptr %4, align 8, !tbaa !252
  %5 = load ptr, ptr %3, align 8, !tbaa !252
  %6 = getelementptr inbounds nuw %"class.sat::literal", ptr %5, i32 0, i32 0
  %7 = load i32, ptr %6, align 4, !tbaa !256
  %8 = load ptr, ptr %4, align 8, !tbaa !252
  %9 = getelementptr inbounds nuw %"class.sat::literal", ptr %8, i32 0, i32 0
  %10 = load i32, ptr %9, align 4, !tbaa !256
  %11 = icmp eq i32 %7, %10
  ret i1 %11
}

; Function Attrs: mustprogress nounwind uwtable
define linkonce_odr hidden i32 @_ZN3satcoENS_7literalE(i32 %0) #5 comdat {
  %2 = alloca %"class.sat::literal", align 4
  %3 = alloca %"class.sat::literal", align 4
  %4 = getelementptr inbounds nuw %"class.sat::literal", ptr %3, i32 0, i32 0
  store i32 %0, ptr %4, align 4
  %5 = getelementptr inbounds nuw %"class.sat::literal", ptr %3, i32 0, i32 0
  %6 = load i32, ptr %5, align 4, !tbaa !256
  %7 = xor i32 %6, 1
  %8 = getelementptr inbounds nuw %"class.sat::literal", ptr %3, i32 0, i32 0
  store i32 %7, ptr %8, align 4, !tbaa !256
  call void @llvm.memcpy.p0.p0.i64(ptr align 4 %2, ptr align 4 %3, i64 4, i1 false), !tbaa.struct !214
  %9 = getelementptr inbounds nuw %"class.sat::literal", ptr %2, i32 0, i32 0
  %10 = load i32, ptr %9, align 4
  ret i32 %10
}

; Function Attrs: mustprogress nounwind uwtable
define linkonce_odr hidden noundef i32 @_ZNK3sat3big9get_rightENS_7literalE(ptr noundef nonnull align 8 dereferenceable(80) %0, i32 %1) #5 comdat align 2 {
  %3 = alloca %"class.sat::literal", align 4
  %4 = alloca ptr, align 8
  %5 = getelementptr inbounds nuw %"class.sat::literal", ptr %3, i32 0, i32 0
  store i32 %1, ptr %5, align 4
  store ptr %0, ptr %4, align 8, !tbaa !49
  %6 = load ptr, ptr %4, align 8
  %7 = getelementptr inbounds nuw %"class.sat::big", ptr %6, i32 0, i32 5
  %8 = call noundef i32 @_ZNK3sat7literal5indexEv(ptr noundef nonnull align 4 dereferenceable(4) %3)
  %9 = call noundef nonnull align 4 dereferenceable(4) ptr @_ZNK6vectorIiLb0EjEixEj(ptr noundef nonnull align 8 dereferenceable(8) %7, i32 noundef %8)
  %10 = load i32, ptr %9, align 4, !tbaa !30
  ret i32 %10
}

; Function Attrs: mustprogress nounwind uwtable
define linkonce_odr hidden noundef i32 @_ZNK6vectorIN3sat7literalELb0EjE4sizeEv(ptr noundef nonnull align 8 dereferenceable(8) %0) #5 comdat align 2 {
  %2 = alloca i32, align 4
  %3 = alloca ptr, align 8
  store ptr %0, ptr %3, align 8, !tbaa !45
  %4 = load ptr, ptr %3, align 8
  %5 = getelementptr inbounds nuw %class.vector, ptr %4, i32 0, i32 0
  %6 = load ptr, ptr %5, align 8, !tbaa !255
  %7 = icmp eq ptr %6, null
  br i1 %7, label %8, label %9

8:                                                ; preds = %1
  store i32 0, ptr %2, align 4
  br label %14

9:                                                ; preds = %1
  %10 = getelementptr inbounds nuw %class.vector, ptr %4, i32 0, i32 0
  %11 = load ptr, ptr %10, align 8, !tbaa !255
  %12 = getelementptr inbounds i32, ptr %11, i64 -1
  %13 = load i32, ptr %12, align 4, !tbaa !30
  store i32 %13, ptr %2, align 4
  br label %14

14:                                               ; preds = %9, %8
  %15 = load i32, ptr %2, align 4
  ret i32 %15
}

; Function Attrs: mustprogress uwtable
define linkonce_odr hidden noundef i32 @_ZNK3sat3big8get_leftENS_7literalE(ptr noundef nonnull align 8 dereferenceable(80) %0, i32 %1) #4 comdat align 2 {
  %3 = alloca %"class.sat::literal", align 4
  %4 = alloca ptr, align 8
  %5 = getelementptr inbounds nuw %"class.sat::literal", ptr %3, i32 0, i32 0
  store i32 %1, ptr %5, align 4
  store ptr %0, ptr %4, align 8, !tbaa !49
  %6 = load ptr, ptr %4, align 8
  %7 = getelementptr inbounds nuw %"class.sat::big", ptr %6, i32 0, i32 4
  %8 = call noundef i32 @_ZNK3sat7literal5indexEv(ptr noundef nonnull align 4 dereferenceable(4) %3)
  %9 = call noundef nonnull align 4 dereferenceable(4) ptr @_ZNK6vectorIiLb0EjEixEj(ptr noundef nonnull align 8 dereferenceable(8) %7, i32 noundef %8)
  %10 = load i32, ptr %9, align 4, !tbaa !30
  ret i32 %10
}

; Function Attrs: mustprogress nounwind uwtable
define linkonce_odr hidden noundef nonnull align 4 dereferenceable(4) ptr @_ZN6vectorIN3sat7literalELb0EjEixEj(ptr noundef nonnull align 8 dereferenceable(8) %0, i32 noundef %1) #5 comdat align 2 {
  %3 = alloca ptr, align 8
  %4 = alloca i32, align 4
  store ptr %0, ptr %3, align 8, !tbaa !45
  store i32 %1, ptr %4, align 4, !tbaa !30
  %5 = load ptr, ptr %3, align 8
  %6 = getelementptr inbounds nuw %class.vector, ptr %5, i32 0, i32 0
  %7 = load ptr, ptr %6, align 8, !tbaa !255
  %8 = load i32, ptr %4, align 4, !tbaa !30
  %9 = zext i32 %8 to i64
  %10 = getelementptr inbounds nuw %"class.sat::literal", ptr %7, i64 %9
  ret ptr %10
}

; Function Attrs: mustprogress uwtable
define hidden noundef zeroext i1 @_ZN3sat12asymm_branch4uhteERNS_3bigERNS_6clauseE(ptr noundef nonnull align 8 dereferenceable(128) %0, ptr noundef nonnull align 8 dereferenceable(80) %1, ptr noundef nonnull align 4 dereferenceable(20) %2) #4 align 2 {
  %4 = alloca i1, align 1
  %5 = alloca ptr, align 8
  %6 = alloca ptr, align 8
  %7 = alloca ptr, align 8
  %8 = alloca i32, align 4
  %9 = alloca i32, align 4
  %10 = alloca %"class.sat::literal", align 4
  %11 = alloca %"class.sat::literal", align 4
  %12 = alloca %"class.sat::literal", align 4
  %13 = alloca %"class.sat::literal", align 4
  %14 = alloca i32, align 4
  %15 = alloca %"class.sat::literal", align 4
  %16 = alloca %"class.sat::literal", align 4
  %17 = alloca %"class.sat::literal", align 4
  %18 = alloca %"class.sat::literal", align 4
  %19 = alloca %"class.sat::literal", align 4
  %20 = alloca %"class.sat::literal", align 4
  store ptr %0, ptr %5, align 8, !tbaa !3
  store ptr %1, ptr %6, align 8, !tbaa !49
  store ptr %2, ptr %7, align 8, !tbaa !200
  %21 = load ptr, ptr %5, align 8
  call void @llvm.lifetime.start.p0(i64 4, ptr %8) #3
  store i32 0, ptr %8, align 4, !tbaa !30
  call void @llvm.lifetime.start.p0(i64 4, ptr %9) #3
  store i32 0, ptr %9, align 4, !tbaa !30
  call void @llvm.lifetime.start.p0(i64 4, ptr %10) #3
  %22 = getelementptr inbounds nuw %"class.sat::asymm_branch", ptr %21, i32 0, i32 15
  %23 = load i32, ptr %8, align 4, !tbaa !30
  %24 = add i32 %23, 1
  store i32 %24, ptr %8, align 4, !tbaa !30
  %25 = call noundef nonnull align 4 dereferenceable(4) ptr @_ZN6vectorIN3sat7literalELb0EjEixEj(ptr noundef nonnull align 8 dereferenceable(8) %22, i32 noundef %23)
  call void @llvm.memcpy.p0.p0.i64(ptr align 4 %10, ptr align 4 %25, i64 4, i1 false), !tbaa.struct !214
  call void @llvm.lifetime.start.p0(i64 4, ptr %11) #3
  %26 = getelementptr inbounds nuw %"class.sat::asymm_branch", ptr %21, i32 0, i32 16
  %27 = load i32, ptr %9, align 4, !tbaa !30
  %28 = add i32 %27, 1
  store i32 %28, ptr %9, align 4, !tbaa !30
  %29 = call noundef nonnull align 4 dereferenceable(4) ptr @_ZN6vectorIN3sat7literalELb0EjEixEj(ptr noundef nonnull align 8 dereferenceable(8) %26, i32 noundef %27)
  call void @llvm.memcpy.p0.p0.i64(ptr align 4 %11, ptr align 4 %29, i64 4, i1 false), !tbaa.struct !214
  br label %30

30:                                               ; preds = %98, %3
  br label %31

31:                                               ; preds = %30
  %32 = load ptr, ptr %6, align 8, !tbaa !49
  call void @llvm.memcpy.p0.p0.i64(ptr align 4 %12, ptr align 4 %11, i64 4, i1 false), !tbaa.struct !214
  %33 = getelementptr inbounds nuw %"class.sat::literal", ptr %12, i32 0, i32 0
  %34 = load i32, ptr %33, align 4
  %35 = call noundef i32 @_ZNK3sat3big8get_leftENS_7literalE(ptr noundef nonnull align 8 dereferenceable(80) %32, i32 %34)
  %36 = load ptr, ptr %6, align 8, !tbaa !49
  call void @llvm.memcpy.p0.p0.i64(ptr align 4 %13, ptr align 4 %10, i64 4, i1 false), !tbaa.struct !214
  %37 = getelementptr inbounds nuw %"class.sat::literal", ptr %13, i32 0, i32 0
  %38 = load i32, ptr %37, align 4
  %39 = call noundef i32 @_ZNK3sat3big8get_leftENS_7literalE(ptr noundef nonnull align 8 dereferenceable(80) %36, i32 %38)
  %40 = icmp sgt i32 %35, %39
  br i1 %40, label %41, label %52

41:                                               ; preds = %31
  %42 = load i32, ptr %8, align 4, !tbaa !30
  %43 = getelementptr inbounds nuw %"class.sat::asymm_branch", ptr %21, i32 0, i32 15
  %44 = call noundef i32 @_ZNK6vectorIN3sat7literalELb0EjE4sizeEv(ptr noundef nonnull align 8 dereferenceable(8) %43)
  %45 = icmp eq i32 %42, %44
  br i1 %45, label %46, label %47

46:                                               ; preds = %41
  store i1 false, ptr %4, align 1
  store i32 1, ptr %14, align 4
  br label %99

47:                                               ; preds = %41
  %48 = getelementptr inbounds nuw %"class.sat::asymm_branch", ptr %21, i32 0, i32 15
  %49 = load i32, ptr %8, align 4, !tbaa !30
  %50 = add i32 %49, 1
  store i32 %50, ptr %8, align 4, !tbaa !30
  %51 = call noundef nonnull align 4 dereferenceable(4) ptr @_ZN6vectorIN3sat7literalELb0EjEixEj(ptr noundef nonnull align 8 dereferenceable(8) %48, i32 noundef %49)
  call void @llvm.memcpy.p0.p0.i64(ptr align 4 %10, ptr align 4 %51, i64 4, i1 false), !tbaa.struct !214
  br label %98

52:                                               ; preds = %31
  %53 = load ptr, ptr %6, align 8, !tbaa !49
  call void @llvm.memcpy.p0.p0.i64(ptr align 4 %15, ptr align 4 %11, i64 4, i1 false), !tbaa.struct !214
  %54 = getelementptr inbounds nuw %"class.sat::literal", ptr %15, i32 0, i32 0
  %55 = load i32, ptr %54, align 4
  %56 = call noundef i32 @_ZNK3sat3big9get_rightENS_7literalE(ptr noundef nonnull align 8 dereferenceable(80) %53, i32 %55)
  %57 = load ptr, ptr %6, align 8, !tbaa !49
  call void @llvm.memcpy.p0.p0.i64(ptr align 4 %16, ptr align 4 %10, i64 4, i1 false), !tbaa.struct !214
  %58 = getelementptr inbounds nuw %"class.sat::literal", ptr %16, i32 0, i32 0
  %59 = load i32, ptr %58, align 4
  %60 = call noundef i32 @_ZNK3sat3big9get_rightENS_7literalE(ptr noundef nonnull align 8 dereferenceable(80) %57, i32 %59)
  %61 = icmp slt i32 %56, %60
  call void @llvm.lifetime.start.p0(i64 4, ptr %17) #3
  call void @llvm.lifetime.start.p0(i64 4, ptr %19) #3
  br i1 %61, label %83, label %62

62:                                               ; preds = %52
  %63 = getelementptr inbounds nuw %"class.sat::asymm_branch", ptr %21, i32 0, i32 15
  %64 = call noundef i32 @_ZNK6vectorIN3sat7literalELb0EjE4sizeEv(ptr noundef nonnull align 8 dereferenceable(8) %63)
  %65 = icmp eq i32 %64, 2
  br i1 %65, label %66, label %81

66:                                               ; preds = %62
  call void @llvm.memcpy.p0.p0.i64(ptr align 4 %18, ptr align 4 %11, i64 4, i1 false), !tbaa.struct !214
  %67 = getelementptr inbounds nuw %"class.sat::literal", ptr %18, i32 0, i32 0
  %68 = load i32, ptr %67, align 4
  %69 = call i32 @_ZN3satcoENS_7literalE(i32 %68)
  %70 = getelementptr inbounds nuw %"class.sat::literal", ptr %17, i32 0, i32 0
  store i32 %69, ptr %70, align 4
  %71 = call noundef zeroext i1 @_ZN3sateqERKNS_7literalES2_(ptr noundef nonnull align 4 dereferenceable(4) %10, ptr noundef nonnull align 4 dereferenceable(4) %17)
  br i1 %71, label %79, label %72

72:                                               ; preds = %66
  %73 = load ptr, ptr %6, align 8, !tbaa !49
  call void @llvm.memcpy.p0.p0.i64(ptr align 4 %20, ptr align 4 %10, i64 4, i1 false), !tbaa.struct !214
  %74 = getelementptr inbounds nuw %"class.sat::literal", ptr %20, i32 0, i32 0
  %75 = load i32, ptr %74, align 4
  %76 = call i32 @_ZNK3sat3big10get_parentENS_7literalE(ptr noundef nonnull align 8 dereferenceable(80) %73, i32 %75)
  %77 = getelementptr inbounds nuw %"class.sat::literal", ptr %19, i32 0, i32 0
  store i32 %76, ptr %77, align 4
  %78 = call noundef zeroext i1 @_ZN3sateqERKNS_7literalES2_(ptr noundef nonnull align 4 dereferenceable(4) %19, ptr noundef nonnull align 4 dereferenceable(4) %11)
  br label %79

79:                                               ; preds = %72, %66
  %80 = phi i1 [ true, %66 ], [ %78, %72 ]
  br label %81

81:                                               ; preds = %79, %62
  %82 = phi i1 [ false, %62 ], [ %80, %79 ]
  br label %83

83:                                               ; preds = %81, %52
  %84 = phi i1 [ true, %52 ], [ %82, %81 ]
  call void @llvm.lifetime.end.p0(i64 4, ptr %19) #3
  call void @llvm.lifetime.end.p0(i64 4, ptr %17) #3
  br i1 %84, label %85, label %96

85:                                               ; preds = %83
  %86 = load i32, ptr %9, align 4, !tbaa !30
  %87 = getelementptr inbounds nuw %"class.sat::asymm_branch", ptr %21, i32 0, i32 16
  %88 = call noundef i32 @_ZNK6vectorIN3sat7literalELb0EjE4sizeEv(ptr noundef nonnull align 8 dereferenceable(8) %87)
  %89 = icmp eq i32 %86, %88
  br i1 %89, label %90, label %91

90:                                               ; preds = %85
  store i1 false, ptr %4, align 1
  store i32 1, ptr %14, align 4
  br label %99

91:                                               ; preds = %85
  %92 = getelementptr inbounds nuw %"class.sat::asymm_branch", ptr %21, i32 0, i32 16
  %93 = load i32, ptr %9, align 4, !tbaa !30
  %94 = add i32 %93, 1
  store i32 %94, ptr %9, align 4, !tbaa !30
  %95 = call noundef nonnull align 4 dereferenceable(4) ptr @_ZN6vectorIN3sat7literalELb0EjEixEj(ptr noundef nonnull align 8 dereferenceable(8) %92, i32 noundef %93)
  call void @llvm.memcpy.p0.p0.i64(ptr align 4 %11, ptr align 4 %95, i64 4, i1 false), !tbaa.struct !214
  br label %97

96:                                               ; preds = %83
  store i1 true, ptr %4, align 1
  store i32 1, ptr %14, align 4
  br label %99

97:                                               ; preds = %91
  br label %98

98:                                               ; preds = %97, %47
  br label %30, !llvm.loop !259

99:                                               ; preds = %96, %90, %46
  call void @llvm.lifetime.end.p0(i64 4, ptr %11) #3
  call void @llvm.lifetime.end.p0(i64 4, ptr %10) #3
  call void @llvm.lifetime.end.p0(i64 4, ptr %9) #3
  call void @llvm.lifetime.end.p0(i64 4, ptr %8) #3
  %100 = load i1, ptr %4, align 1
  ret i1 %100
}