; Function Attrs: mustprogress nofree norecurse nosync nounwind willreturn memory(read, inaccessiblemem: none) uwtable
define hidden noundef zeroext i1 @_ZN3sat12asymm_branch4uhteERNS_3bigERNS_6clauseE(ptr noundef nonnull readonly align 8 captures(none) dereferenceable(128) %0, ptr noundef nonnull readonly align 8 captures(none) dereferenceable(80) %1, ptr noundef nonnull readnone align 4 captures(none) dereferenceable(20) %2) local_unnamed_addr #13 align 2 {
  %4 = getelementptr inbounds nuw i8, ptr %0, i64 80
  %5 = load ptr, ptr %4, align 8, !tbaa !38
  %6 = load i32, ptr %5, align 4, !tbaa !187
  %7 = getelementptr inbounds nuw i8, ptr %0, i64 88
  %8 = load ptr, ptr %7, align 8, !tbaa !38
  %9 = getelementptr inbounds i8, ptr %5, i64 -4
  %10 = getelementptr inbounds nuw i8, ptr %1, i64 56
  %11 = getelementptr inbounds nuw i8, ptr %1, i64 32
  %12 = load ptr, ptr %11, align 8, !tbaa !204
  %13 = getelementptr inbounds nuw i8, ptr %1, i64 40
  %14 = load ptr, ptr %13, align 8
  %15 = load ptr, ptr %10, align 8
  %16 = getelementptr inbounds i8, ptr %8, i64 -4
  br label %.outer

.outer:                                           ; preds = %48, %3
  %.sroa.027.0.ph.in = phi ptr [ %51, %48 ], [ %8, %3 ]
  %.sroa.031.0.ph = phi i32 [ %.sroa.031.0, %48 ], [ %6, %3 ]
  %.020.ph = phi i32 [ %49, %48 ], [ 1, %3 ]
  %.019.ph = phi i32 [ %.019, %48 ], [ 1, %3 ]
  %.sroa.027.0.ph = load i32, ptr %.sroa.027.0.ph.in, align 4, !tbaa !187
  %17 = zext i32 %.sroa.027.0.ph to i64
  %18 = getelementptr inbounds nuw i32, ptr %12, i64 %17
  %19 = load i32, ptr %18, align 4, !tbaa !187
  br label %20

20:                                               ; preds = %.outer, %27
  %.sroa.031.0 = phi i32 [ %31, %27 ], [ %.sroa.031.0.ph, %.outer ]
  %.019 = phi i32 [ %28, %27 ], [ %.019.ph, %.outer ]
  %21 = zext i32 %.sroa.031.0 to i64
  %22 = getelementptr inbounds nuw i32, ptr %12, i64 %21
  %23 = load i32, ptr %22, align 4, !tbaa !187
  %24 = icmp sgt i32 %19, %23
  br i1 %24, label %_ZNK6vectorIN3sat7literalELb0EjE4sizeEv.exit, label %32

_ZNK6vectorIN3sat7literalELb0EjE4sizeEv.exit:     ; preds = %20
  %25 = load i32, ptr %9, align 4, !tbaa !187
  %26 = icmp eq i32 %.019, %25
  br i1 %26, label %.critedge2, label %27

27:                                               ; preds = %_ZNK6vectorIN3sat7literalELb0EjE4sizeEv.exit
  %28 = add i32 %.019, 1
  %29 = zext i32 %.019 to i64
  %30 = getelementptr inbounds nuw %"class.sat::literal", ptr %5, i64 %29
  %31 = load i32, ptr %30, align 4, !tbaa !187
  br label %20, !llvm.loop !205

32:                                               ; preds = %20
  %33 = getelementptr inbounds nuw i32, ptr %14, i64 %17
  %34 = load i32, ptr %33, align 4, !tbaa !187
  %35 = getelementptr inbounds nuw i32, ptr %14, i64 %21
  %36 = load i32, ptr %35, align 4, !tbaa !187
  %37 = icmp slt i32 %34, %36
  br i1 %37, label %_ZNK6vectorIN3sat7literalELb0EjE4sizeEv.exit25, label %_ZNK6vectorIN3sat7literalELb0EjE4sizeEv.exit23

_ZNK6vectorIN3sat7literalELb0EjE4sizeEv.exit23:   ; preds = %32
  %38 = load i32, ptr %9, align 4, !tbaa !187
  %39 = icmp eq i32 %38, 2
  br i1 %39, label %40, label %.critedge2

40:                                               ; preds = %_ZNK6vectorIN3sat7literalELb0EjE4sizeEv.exit23
  %41 = xor i32 %.sroa.031.0, %.sroa.027.0.ph
  %42 = icmp eq i32 %41, 1
  br i1 %42, label %_ZNK6vectorIN3sat7literalELb0EjE4sizeEv.exit25, label %43

43:                                               ; preds = %40
  %44 = getelementptr inbounds nuw %"class.sat::literal", ptr %15, i64 %21
  %.sroa.0.0.copyload.i = load i32, ptr %44, align 4, !tbaa !187
  %45 = icmp eq i32 %.sroa.0.0.copyload.i, %.sroa.027.0.ph
  br i1 %45, label %_ZNK6vectorIN3sat7literalELb0EjE4sizeEv.exit25, label %.critedge2

_ZNK6vectorIN3sat7literalELb0EjE4sizeEv.exit25:   ; preds = %32, %40, %43
  %46 = load i32, ptr %16, align 4, !tbaa !187
  %47 = icmp eq i32 %.020.ph, %46
  br i1 %47, label %.critedge2, label %48

48:                                               ; preds = %_ZNK6vectorIN3sat7literalELb0EjE4sizeEv.exit25
  %49 = add i32 %.020.ph, 1
  %50 = zext i32 %.020.ph to i64
  %51 = getelementptr inbounds nuw %"class.sat::literal", ptr %8, i64 %50
  br label %.outer, !llvm.loop !205

.critedge2:                                       ; preds = %_ZNK6vectorIN3sat7literalELb0EjE4sizeEv.exit23, %43, %_ZNK6vectorIN3sat7literalELb0EjE4sizeEv.exit25, %_ZNK6vectorIN3sat7literalELb0EjE4sizeEv.exit
  %.0 = phi i1 [ false, %_ZNK6vectorIN3sat7literalELb0EjE4sizeEv.exit ], [ true, %_ZNK6vectorIN3sat7literalELb0EjE4sizeEv.exit23 ], [ true, %43 ], [ false, %_ZNK6vectorIN3sat7literalELb0EjE4sizeEv.exit25 ]
  ret i1 %.0
}